; Function Attrs: nounwind sspstrong uwtable
define internal range(i32 -22, 1) i32 @virtio_pci_load_queue(ptr noundef %0, i32 noundef %1, ptr noundef %2) #0 {
  %4 = getelementptr i8, ptr %0, i64 34160
  %.val = load ptr, ptr %4, align 8
  %.not.i = icmp eq ptr %.val, null
  br i1 %.not.i, label %virtio_bus_get_device.exit, label %5

5:                                                ; preds = %3
  %6 = getelementptr inbounds nuw i8, ptr %.val, i64 16
  %7 = load ptr, ptr %6, align 8
  br label %virtio_bus_get_device.exit

virtio_bus_get_device.exit:                       ; preds = %3, %5
  %8 = phi ptr [ %7, %5 ], [ null, %3 ]
  %9 = tail call i32 @msix_present(ptr noundef nonnull %0) #15
  %.not = icmp eq i32 %9, 0
  br i1 %.not, label %.thread, label %10

10:                                               ; preds = %virtio_bus_get_device.exit
  %11 = tail call i32 @qemu_get_be16(ptr noundef %2) #15
  %12 = trunc i32 %11 to i16
  %.not10 = icmp eq i16 %12, -1
  br i1 %.not10, label %.thread, label %13

13:                                               ; preds = %10
  %14 = and i32 %11, 65535
  %15 = getelementptr inbounds nuw i8, ptr %0, i64 5368
  %16 = load i32, ptr %15, align 8
  %.not11 = icmp ugt i32 %16, %14
  br i1 %.not11, label %17, label %18

.thread:                                          ; preds = %10, %virtio_bus_get_device.exit
  tail call void @virtio_queue_set_vector(ptr noundef %8, i32 noundef %1, i16 noundef zeroext -1) #15
  br label %18

17:                                               ; preds = %13
  tail call void @virtio_queue_set_vector(ptr noundef %8, i32 noundef %1, i16 noundef zeroext %12) #15
  tail call void @msix_vector_use(ptr noundef nonnull %0, i32 noundef %14) #15
  br label %18

18:                                               ; preds = %.thread, %17, %13
  %.0 = phi i32 [ -22, %13 ], [ 0, %17 ], [ 0, %.thread ]
  ret i32 %.0
}